; Function Attrs: nounwind uwtable
define noalias nonnull ptr @l_unexpandMkArray0___rarg(ptr noundef %0, ptr noundef %1) local_unnamed_addr #0 {
  %3 = tail call ptr @l_Lean_SourceInfo_fromRef(ptr noundef %0, i8 noundef zeroext 0) #5
  %4 = load ptr, ptr @l_unexpandListToArray___closed__3, align 8, !tbaa !11
  %5 = ptrtoint ptr %3 to i64
  %6 = and i64 %5, 1
  %.not = icmp eq i64 %6, 0
  br i1 %.not, label %7, label %lean_inc.exit29

7:                                                ; preds = %2
  %.val.i = load i32, ptr %3, align 4, !tbaa !5
  %8 = icmp sgt i32 %.val.i, 0
  br i1 %8, label %9, label %11, !prof !10

9:                                                ; preds = %7
  %10 = add nuw i32 %.val.i, 1
  store i32 %10, ptr %3, align 4, !tbaa !5
  br label %lean_inc.exit29

11:                                               ; preds = %7
  %.not.i = icmp eq i32 %.val.i, 0
  br i1 %.not.i, label %lean_inc.exit29, label %12

12:                                               ; preds = %11
  tail call void @lean_inc_ref_cold(ptr noundef nonnull %3) #5
  br label %lean_inc.exit29

lean_inc.exit29:                                  ; preds = %12, %11, %9, %2
  tail call void @lean_inc_heartbeat() #5
  %13 = tail call noalias ptr @mi_malloc_small(i64 noundef 24) #5
  %14 = icmp eq ptr %13, null
  br i1 %14, label %15, label %lean_alloc_ctor.exit

15:                                               ; preds = %lean_inc.exit29
  tail call void @lean_internal_panic_out_of_memory() #6
  unreachable

lean_alloc_ctor.exit:                             ; preds = %lean_inc.exit29
  %16 = getelementptr inbounds nuw i8, ptr %13, i64 4
  store i32 1, ptr %13, align 4, !tbaa !5
  store i32 33685528, ptr %16, align 4
  %17 = getelementptr inbounds nuw i8, ptr %13, i64 8
  store ptr %3, ptr %17, align 8, !tbaa !11
  %18 = getelementptr inbounds nuw i8, ptr %13, i64 16
  store ptr %4, ptr %18, align 8, !tbaa !11
  %19 = load ptr, ptr @l_Lean_expandExplicitBindersAux_loop___closed__6, align 8, !tbaa !11
  %20 = load ptr, ptr @l_Lean_expandExplicitBindersAux_loop___closed__14, align 8, !tbaa !11
  br i1 %.not, label %21, label %lean_inc.exit28

21:                                               ; preds = %lean_alloc_ctor.exit
  %.val.i30 = load i32, ptr %3, align 4, !tbaa !5
  %22 = icmp sgt i32 %.val.i30, 0
  br i1 %22, label %23, label %25, !prof !10

23:                                               ; preds = %21
  %24 = add nuw i32 %.val.i30, 1
  store i32 %24, ptr %3, align 4, !tbaa !5
  br label %lean_inc.exit28

25:                                               ; preds = %21
  %.not.i31 = icmp eq i32 %.val.i30, 0
  br i1 %.not.i31, label %lean_inc.exit28, label %26

26:                                               ; preds = %25
  tail call void @lean_inc_ref_cold(ptr noundef nonnull %3) #5
  br label %lean_inc.exit28

lean_inc.exit28:                                  ; preds = %26, %25, %23, %lean_alloc_ctor.exit
  tail call void @lean_inc_heartbeat() #5
  %27 = tail call noalias ptr @mi_malloc_small(i64 noundef 32) #5
  %28 = icmp eq ptr %27, null
  br i1 %28, label %29, label %lean_alloc_ctor.exit33

29:                                               ; preds = %lean_inc.exit28
  tail call void @lean_internal_panic_out_of_memory() #6
  unreachable

lean_alloc_ctor.exit33:                           ; preds = %lean_inc.exit28
  %30 = getelementptr inbounds nuw i8, ptr %27, i64 4
  store i32 1, ptr %27, align 4, !tbaa !5
  store i32 16973856, ptr %30, align 4
  %31 = getelementptr inbounds nuw i8, ptr %27, i64 8
  store ptr %3, ptr %31, align 8, !tbaa !11
  %32 = getelementptr inbounds nuw i8, ptr %27, i64 16
  store ptr %19, ptr %32, align 8, !tbaa !11
  %33 = getelementptr inbounds nuw i8, ptr %27, i64 24
  store ptr %20, ptr %33, align 8, !tbaa !11
  %34 = load ptr, ptr @l_Lean___aux__Init__NotationExtra______macroRules__Lean__command____Unif__hint________Where___x7c___x2d_u22a2____1___lambda__1___closed__26, align 8, !tbaa !11
  br i1 %.not, label %35, label %lean_inc.exit

35:                                               ; preds = %lean_alloc_ctor.exit33
  %.val.i34 = load i32, ptr %3, align 4, !tbaa !5
  %36 = icmp sgt i32 %.val.i34, 0
  br i1 %36, label %37, label %39, !prof !10

37:                                               ; preds = %35
  %38 = add nuw i32 %.val.i34, 1
  store i32 %38, ptr %3, align 4, !tbaa !5
  br label %lean_inc.exit

39:                                               ; preds = %35
  %.not.i35 = icmp eq i32 %.val.i34, 0
  br i1 %.not.i35, label %lean_inc.exit, label %40

40:                                               ; preds = %39
  tail call void @lean_inc_ref_cold(ptr noundef nonnull %3) #5
  br label %lean_inc.exit

lean_inc.exit:                                    ; preds = %40, %39, %37, %lean_alloc_ctor.exit33
  tail call void @lean_inc_heartbeat() #5
  %41 = tail call noalias ptr @mi_malloc_small(i64 noundef 24) #5
  %42 = icmp eq ptr %41, null
  br i1 %42, label %43, label %lean_alloc_ctor.exit37

43:                                               ; preds = %lean_inc.exit
  tail call void @lean_internal_panic_out_of_memory() #6
  unreachable

lean_alloc_ctor.exit37:                           ; preds = %lean_inc.exit
  %44 = getelementptr inbounds nuw i8, ptr %41, i64 4
  store i32 1, ptr %41, align 4, !tbaa !5
  store i32 33685528, ptr %44, align 4
  %45 = getelementptr inbounds nuw i8, ptr %41, i64 8
  store ptr %3, ptr %45, align 8, !tbaa !11
  %46 = getelementptr inbounds nuw i8, ptr %41, i64 16
  store ptr %34, ptr %46, align 8, !tbaa !11
  %47 = load ptr, ptr @l_unexpandListToArray___closed__2, align 8, !tbaa !11
  %48 = tail call ptr @l_Lean_Syntax_node3(ptr noundef %3, ptr noundef %47, ptr noundef nonnull %13, ptr noundef nonnull %27, ptr noundef nonnull %41) #5
  tail call void @lean_inc_heartbeat() #5
  %49 = tail call noalias ptr @mi_malloc_small(i64 noundef 24) #5
  %50 = icmp eq ptr %49, null
  br i1 %50, label %51, label %lean_alloc_ctor.exit38

51:                                               ; preds = %lean_alloc_ctor.exit37
  tail call void @lean_internal_panic_out_of_memory() #6
  unreachable

lean_alloc_ctor.exit38:                           ; preds = %lean_alloc_ctor.exit37
  %52 = getelementptr inbounds nuw i8, ptr %49, i64 4
  store i32 1, ptr %49, align 4, !tbaa !5
  store i32 131096, ptr %52, align 4
  %53 = getelementptr inbounds nuw i8, ptr %49, i64 8
  store ptr %48, ptr %53, align 8, !tbaa !11
  %54 = getelementptr inbounds nuw i8, ptr %49, i64 16
  store ptr %1, ptr %54, align 8, !tbaa !11
  ret ptr %49
}